; Function Attrs: mustprogress nofree norecurse nosync nounwind willreturn memory(argmem: read) uwtable
define internal range(i32 0, 2) i32 @intersectY(ptr noundef readonly captures(none) %0, ptr noundef readonly captures(none) %1) #4 {
  %3 = getelementptr inbounds nuw i8, ptr %0, i64 60
  %4 = load i32, ptr %3, align 4, !tbaa !49
  %5 = getelementptr inbounds nuw i8, ptr %1, i64 68
  %6 = load i32, ptr %5, align 4, !tbaa !48
  %.not = icmp sgt i32 %4, %6
  br i1 %.not, label %14, label %7

7:                                                ; preds = %2
  %8 = getelementptr inbounds nuw i8, ptr %1, i64 60
  %9 = load i32, ptr %8, align 4, !tbaa !49
  %10 = getelementptr inbounds nuw i8, ptr %0, i64 68
  %11 = load i32, ptr %10, align 4, !tbaa !48
  %12 = icmp sle i32 %9, %11
  %13 = zext i1 %12 to i32
  br label %14

14:                                               ; preds = %7, %2
  %15 = phi i32 [ 0, %2 ], [ %13, %7 ]
  ret i32 %15
}